target datalayout = "e-m:e-p270:32:32-p271:32:32-p272:64:64-i64:64-i128:128-f80:128-n8:16:32:64-S128"
target triple = "x86_64-pc-linux-gnu"

%struct._packet_info = type { ptr, ptr, i32, i32, %struct.nstime_t, %struct.nstime_t, %struct.nstime_t, i8, ptr, ptr, ptr, ptr, %struct._address, %struct._address, %struct._address, %struct._address, %struct._address, %struct._address, i32, ptr, i8, [3 x i8], %struct.anon, i32, i32, i32, i32, ptr, i8, ptr, ptr, i16, i16, i32, i32, i16, i32, i32, ptr, ptr, ptr, i8, i8, i16, i16, i16, i32, i16, i16, ptr, ptr, ptr, ptr, ptr, i32, i32 }
%struct.nstime_t = type { i64, i32 }
%struct._address = type { i32, i32, ptr, ptr }
%struct.anon = type { i8, [3 x i8] }

; Function Attrs: alwaysinline nounwind
define internal ptr @memcpy.inline(ptr noalias %0, ptr noalias %1, i64 %2) #8 {
  %4 = alloca ptr, align 8
  %5 = alloca ptr, align 8
  %6 = alloca i64, align 8
  store ptr %0, ptr %4, align 8
  store ptr %1, ptr %5, align 8
  store i64 %2, ptr %6, align 8
  %7 = load ptr, ptr %4, align 8
  %8 = load ptr, ptr %5, align 8
  %9 = load i64, ptr %6, align 8
  %10 = load ptr, ptr %4, align 8
  %11 = call i64 @llvm.objectsize.i64.p0(ptr %10, i1 false, i1 true, i1 true)
  %12 = call ptr @__memcpy_chk(ptr noundef %7, ptr noundef %8, i64 noundef %9, i64 noundef %11) #12
  ret ptr %12
}

; Function Attrs: inlinehint nounwind null_pointer_is_valid sspstrong uwtable
define internal void @phton16(ptr noundef %0, i16 noundef zeroext %1) #3 {
  %3 = alloca ptr, align 8
  %4 = alloca i16, align 2
  store ptr %0, ptr %3, align 8
  store i16 %1, ptr %4, align 2
  %5 = load i16, ptr %4, align 2
  %6 = zext i16 %5 to i32
  %7 = ashr i32 %6, 8
  %8 = trunc i32 %7 to i8
  %9 = load ptr, ptr %3, align 8
  %10 = getelementptr i8, ptr %9, i64 0
  store i8 %8, ptr %10, align 1
  %11 = load i16, ptr %4, align 2
  %12 = zext i16 %11 to i32
  %13 = ashr i32 %12, 0
  %14 = trunc i32 %13 to i8
  %15 = load ptr, ptr %3, align 8
  %16 = getelementptr i8, ptr %15, i64 1
  store i8 %14, ptr %16, align 1
  ret void
}

; Function Attrs: nounwind null_pointer_is_valid sspstrong uwtable
define internal i32 @exp_pdu_data_src_ip_populate_data(ptr noundef %0, ptr noundef %1, ptr noundef %2, i32 noundef %3) #0 {
  %5 = alloca i32, align 4
  %6 = alloca ptr, align 8
  %7 = alloca ptr, align 8
  %8 = alloca ptr, align 8
  %9 = alloca i32, align 4
  store ptr %0, ptr %6, align 8
  store ptr %1, ptr %7, align 8
  store ptr %2, ptr %8, align 8
  store i32 %3, ptr %9, align 4
  %10 = load ptr, ptr %6, align 8
  %11 = getelementptr inbounds nuw %struct._packet_info, ptr %10, i32 0, i32 14
  %12 = getelementptr inbounds nuw %struct._address, ptr %11, i32 0, i32 0
  %13 = load i32, ptr %12, align 8
  %14 = icmp eq i32 %13, 2
  br i1 %14, label %15, label %27

15:                                               ; preds = %4
  %16 = load ptr, ptr %8, align 8
  %17 = getelementptr i8, ptr %16, i64 0
  call void @phton16(ptr noundef %17, i16 noundef zeroext 20)
  %18 = load ptr, ptr %8, align 8
  %19 = getelementptr i8, ptr %18, i64 2
  call void @phton16(ptr noundef %19, i16 noundef zeroext 4)
  %20 = load ptr, ptr %8, align 8
  %21 = getelementptr i8, ptr %20, i64 4
  %22 = load ptr, ptr %6, align 8
  %23 = getelementptr inbounds nuw %struct._packet_info, ptr %22, i32 0, i32 14
  %24 = getelementptr inbounds nuw %struct._address, ptr %23, i32 0, i32 2
  %25 = load ptr, ptr %24, align 8
  %26 = call ptr @memcpy.inline(ptr noundef %21, ptr noundef %25, i64 noundef 4) #12
  store i32 8, ptr %5, align 4
  br label %47

27:                                               ; preds = %4
  %28 = load ptr, ptr %6, align 8
  %29 = getelementptr inbounds nuw %struct._packet_info, ptr %28, i32 0, i32 14
  %30 = getelementptr inbounds nuw %struct._address, ptr %29, i32 0, i32 0
  %31 = load i32, ptr %30, align 8
  %32 = icmp eq i32 %31, 3
  br i1 %32, label %33, label %45

33:                                               ; preds = %27
  %34 = load ptr, ptr %8, align 8
  %35 = getelementptr i8, ptr %34, i64 0
  call void @phton16(ptr noundef %35, i16 noundef zeroext 22)
  %36 = load ptr, ptr %8, align 8
  %37 = getelementptr i8, ptr %36, i64 2
  call void @phton16(ptr noundef %37, i16 noundef zeroext 16)
  %38 = load ptr, ptr %8, align 8
  %39 = getelementptr i8, ptr %38, i64 4
  %40 = load ptr, ptr %6, align 8
  %41 = getelementptr inbounds nuw %struct._packet_info, ptr %40, i32 0, i32 14
  %42 = getelementptr inbounds nuw %struct._address, ptr %41, i32 0, i32 2
  %43 = load ptr, ptr %42, align 8
  %44 = call ptr @memcpy.inline(ptr noundef %39, ptr noundef %43, i64 noundef 16) #12
  store i32 20, ptr %5, align 4
  br label %47

45:                                               ; preds = %27
  br label %46

46:                                               ; preds = %45
  store i32 0, ptr %5, align 4
  br label %47

47:                                               ; preds = %46, %33, %15
  %48 = load i32, ptr %5, align 4
  ret i32 %48
}