; Function Attrs: nofree nounwind null_pointer_is_valid sspstrong memory(readwrite, inaccessiblemem: none) uwtable
define internal range(i32 0, 21) i32 @exp_pdu_data_src_ip_populate_data(ptr noundef readonly captures(none) %0, ptr readnone captures(none) %1, ptr noundef %2, i32 %3) #4 {
  %5 = getelementptr inbounds nuw i8, ptr %0, i64 160
  %6 = load i32, ptr %5, align 8
  switch i32 %6, label %14 [
    i32 2, label %.sink.split
    i32 3, label %7
  ]

7:                                                ; preds = %4
  br label %.sink.split

.sink.split:                                      ; preds = %4, %7
  %.sink18 = phi i8 [ 22, %7 ], [ 20, %4 ]
  %.sink = phi i8 [ 16, %7 ], [ 4, %4 ]
  %.sink12 = phi i64 [ 16, %7 ], [ 4, %4 ]
  %.0.ph = phi i32 [ 20, %7 ], [ 8, %4 ]
  store i8 0, ptr %2, align 1
  %8 = getelementptr i8, ptr %2, i64 1
  store i8 %.sink18, ptr %8, align 1
  %9 = getelementptr i8, ptr %2, i64 2
  store i8 0, ptr %9, align 1
  %10 = getelementptr i8, ptr %2, i64 3
  store i8 %.sink, ptr %10, align 1
  %11 = getelementptr i8, ptr %2, i64 4
  %12 = getelementptr inbounds nuw i8, ptr %0, i64 168
  %13 = load ptr, ptr %12, align 8
  tail call void @llvm.memcpy.p0.p0.i64(ptr noundef align 1 %11, ptr noundef align 1 %13, i64 noundef %.sink12, i1 noundef false) #14
  br label %14

14:                                               ; preds = %.sink.split, %4
  %.0 = phi i32 [ 0, %4 ], [ %.0.ph, %.sink.split ]
  ret i32 %.0
}